; Function Attrs: mustprogress nounwind uwtable
define void @_ZN4base13AtExitManagerD2Ev(ptr noundef nonnull align 8 dereferenceable(136) %0) unnamed_addr #1 align 2 personality ptr @__gxx_personality_v0 {
  %2 = load ptr, ptr @_ZN4baseL13g_top_managerE, align 8, !tbaa !21
  %.not = icmp eq ptr %2, null
  br i1 %.not, label %7, label %3

3:                                                ; preds = %1
  invoke void @_ZN4base13AtExitManager19ProcessCallbacksNowEv()
          to label %4 unwind label %9

4:                                                ; preds = %3
  %5 = getelementptr inbounds nuw i8, ptr %0, i64 128
  %6 = load ptr, ptr %5, align 8, !tbaa !22
  store ptr %6, ptr @_ZN4baseL13g_top_managerE, align 8, !tbaa !21
  br label %7

7:                                                ; preds = %1, %4
  %8 = getelementptr inbounds nuw i8, ptr %0, i64 40
  tail call void @_ZNSt5dequeIN4base8CallbackIFvvELNS0_8internal8CopyModeE1ELNS3_10RepeatModeE1EEESaIS6_EED2Ev(ptr noundef nonnull align 8 dereferenceable(80) %8) #13
  tail call void @_ZN4base8internal8LockImplD1Ev(ptr noundef nonnull align 8 dereferenceable(40) %0) #13
  ret void

9:                                                ; preds = %3
  %10 = landingpad { ptr, i32 }
          catch ptr null
  %11 = extractvalue { ptr, i32 } %10, 0
  tail call void @__clang_call_terminate(ptr %11) #14
  unreachable
}